; Function Attrs: mustprogress nounwind uwtable
define internal fastcc void @_ZN21PXR_INTERNAL_NS_pegtl8internal12unwind_guardIZNS0_20match_control_unwindINS_3seqIJNS_6not_atIJNS_3sorIJN32pxrInternal_v0_24__pxrReserved__12_GLOBAL__N_113VariableStartENS_5ascii3oneIJLc39EEEEEEEEEENS9_3anyEEEELNS_10apply_modeE1ELNS_11rewind_modeE1ETtTpTyENS7_6ActionETtTpTyENS_13state_controlINS7_6ErrorsEE4typeENS_12memory_inputILNS_13tracking_modeE0ENS9_3eol7lf_crlfENSt7__cxx1112basic_stringIcSt11char_traitsIcESaIcEEEEEJRNS7_13ParserContextERNS_6tracerINS_13tracer_traitsILb1ELb1ELm2ELm8EEEEEEEEDaRT4_DpOT5_EUlvE_ED2Ev(ptr nocapture noundef nonnull readonly align 8 dereferenceable(32) %0) unnamed_addr #5 align 2 personality ptr @__gxx_personality_v0 {
  %2 = getelementptr inbounds i8, ptr %0, i64 24
  %.val = load i8, ptr %2, align 8
  %3 = trunc i8 %.val to i1
  br i1 %3, label %4, label %_ZZN21PXR_INTERNAL_NS_pegtl8internal20match_control_unwindINS_3seqIJNS_6not_atIJNS_3sorIJN32pxrInternal_v0_24__pxrReserved__12_GLOBAL__N_113VariableStartENS_5ascii3oneIJLc39EEEEEEEEEENS8_3anyEEEELNS_10apply_modeE1ELNS_11rewind_modeE1ETtTpTyENS6_6ActionETtTpTyENS_13state_controlINS6_6ErrorsEE4typeENS_12memory_inputILNS_13tracking_modeE0ENS8_3eol7lf_crlfENSt7__cxx1112basic_stringIcSt11char_traitsIcESaIcEEEEEJRNS6_13ParserContextERNS_6tracerINS_13tracer_traitsILb1ELb1ELm2ELm8EEEEEEEEDaRT4_DpOT5_ENKUlvE_clEv.exit

4:                                                ; preds = %1
  %5 = load ptr, ptr %0, align 8
  %6 = getelementptr inbounds nuw i8, ptr %0, i64 16
  %7 = load ptr, ptr %6, align 8
  invoke fastcc void @_ZN21PXR_INTERNAL_NS_pegtl14shuffle_statesINS_13state_controlIN32pxrInternal_v0_24__pxrReserved__12_GLOBAL__N_16ErrorsEE7controlINS_3seqIJNS_6not_atIJNS_3sorIJNS3_13VariableStartENS_5ascii3oneIJLc39EEEEEEEEEENSB_3anyEEEEEENS_8internal12rotate_rightILm1EEEE6unwindINS_12memory_inputILNS_13tracking_modeE0ENSB_3eol7lf_crlfENSt7__cxx1112basic_stringIcSt11char_traitsIcESaIcEEEEEJRNS3_13ParserContextERNS_6tracerINS_13tracer_traitsILb1ELb1ELm2ELm8EEEEEEEEDTcl11unwind_implfp_clsr3stdE3tiespfp0_Ecv18__make_integer_seqISt16integer_sequencemXsZfp0_EE_EEERKT_DpOT0_(ptr noundef nonnull align 8 dereferenceable(88) %5, ptr noundef nonnull align 8 dereferenceable(96) %7)
          to label %_ZZN21PXR_INTERNAL_NS_pegtl8internal20match_control_unwindINS_3seqIJNS_6not_atIJNS_3sorIJN32pxrInternal_v0_24__pxrReserved__12_GLOBAL__N_113VariableStartENS_5ascii3oneIJLc39EEEEEEEEEENS8_3anyEEEELNS_10apply_modeE1ELNS_11rewind_modeE1ETtTpTyENS6_6ActionETtTpTyENS_13state_controlINS6_6ErrorsEE4typeENS_12memory_inputILNS_13tracking_modeE0ENS8_3eol7lf_crlfENSt7__cxx1112basic_stringIcSt11char_traitsIcESaIcEEEEEJRNS6_13ParserContextERNS_6tracerINS_13tracer_traitsILb1ELb1ELm2ELm8EEEEEEEEDaRT4_DpOT5_ENKUlvE_clEv.exit unwind label %8

_ZZN21PXR_INTERNAL_NS_pegtl8internal20match_control_unwindINS_3seqIJNS_6not_atIJNS_3sorIJN32pxrInternal_v0_24__pxrReserved__12_GLOBAL__N_113VariableStartENS_5ascii3oneIJLc39EEEEEEEEEENS8_3anyEEEELNS_10apply_modeE1ELNS_11rewind_modeE1ETtTpTyENS6_6ActionETtTpTyENS_13state_controlINS6_6ErrorsEE4typeENS_12memory_inputILNS_13tracking_modeE0ENS8_3eol7lf_crlfENSt7__cxx1112basic_stringIcSt11char_traitsIcESaIcEEEEEJRNS6_13ParserContextERNS_6tracerINS_13tracer_traitsILb1ELb1ELm2ELm8EEEEEEEEDaRT4_DpOT5_ENKUlvE_clEv.exit: ; preds = %4, %1
  ret void

8:                                                ; preds = %4
  %9 = landingpad { ptr, i32 }
          catch ptr null
  %10 = extractvalue { ptr, i32 } %9, 0
  tail call void @__clang_call_terminate(ptr %10) #28
  unreachable
}